; Function Attrs: nofree norecurse nosync nounwind memory(argmem: readwrite) uwtable
define internal void @SDL_ConvertStereoToQuad(ptr noundef writeonly captures(none) %0, ptr noundef readonly captures(none) %1, i32 noundef %2) #5 {
  %.not16 = icmp eq i32 %2, 0
  br i1 %.not16, label %._crit_edge, label %.lr.ph.preheader

.lr.ph.preheader:                                 ; preds = %3
  %4 = add nsw i32 %2, -1
  %5 = shl nsw i32 %4, 2
  %6 = sext i32 %5 to i64
  %7 = getelementptr inbounds float, ptr %0, i64 %6
  %8 = shl nsw i32 %4, 1
  %9 = sext i32 %8 to i64
  %10 = getelementptr inbounds float, ptr %1, i64 %9
  br label %.lr.ph

.lr.ph:                                           ; preds = %.lr.ph.preheader, %.lr.ph
  %.019 = phi i32 [ %17, %.lr.ph ], [ %2, %.lr.ph.preheader ]
  %.01418 = phi ptr [ %19, %.lr.ph ], [ %7, %.lr.ph.preheader ]
  %.01517 = phi ptr [ %18, %.lr.ph ], [ %10, %.lr.ph.preheader ]
  %11 = getelementptr inbounds nuw i8, ptr %.01418, i64 12
  store float 0.000000e+00, ptr %11, align 4
  %12 = getelementptr inbounds nuw i8, ptr %.01418, i64 8
  store float 0.000000e+00, ptr %12, align 4
  %13 = getelementptr inbounds nuw i8, ptr %.01517, i64 4
  %14 = load float, ptr %13, align 4
  %15 = getelementptr inbounds nuw i8, ptr %.01418, i64 4
  store float %14, ptr %15, align 4
  %16 = load float, ptr %.01517, align 4
  store float %16, ptr %.01418, align 4
  %17 = add nsw i32 %.019, -1
  %18 = getelementptr inbounds i8, ptr %.01517, i64 -8
  %19 = getelementptr inbounds i8, ptr %.01418, i64 -16
  %.not = icmp eq i32 %17, 0
  br i1 %.not, label %._crit_edge, label %.lr.ph, !llvm.loop !59

._crit_edge:                                      ; preds = %.lr.ph, %3
  ret void
}